target datalayout = "e-m:e-p270:32:32-p271:32:32-p272:64:64-i64:64-i128:128-f80:128-n8:16:32:64-S128"
target triple = "x86_64-unknown-linux-gnu"

%struct.UEnumeration = type { ptr, ptr, ptr, ptr, ptr, ptr, ptr }
%struct.UResourceBundle = type { ptr, ptr, ptr, ptr, ptr, [64 x i8], i32, i32, i8, i8, i32, i32, i32, i32 }
%struct.ULocalesContext = type { %struct.UResourceBundle, %struct.UResourceBundle }

@.str.5 = private unnamed_addr constant [10 x i8] c"res_index\00", align 1
@.str.6 = private unnamed_addr constant [17 x i8] c"InstalledLocales\00", align 1

; Function Attrs: mustprogress nounwind uwtable
define internal void @_ZL21ures_setIsStackObjectP15UResourceBundlea(ptr noundef %resB, i8 noundef signext %state) #0 {
entry:
  %resB.addr = alloca ptr, align 8
  %state.addr = alloca i8, align 1
  store ptr %resB, ptr %resB.addr, align 8
  store i8 %state, ptr %state.addr, align 1
  %0 = load i8, ptr %state.addr, align 1
  %tobool = icmp ne i8 %0, 0
  br i1 %tobool, label %if.then, label %if.else

if.then:                                          ; preds = %entry
  %1 = load ptr, ptr %resB.addr, align 8
  %fMagic1 = getelementptr inbounds %struct.UResourceBundle, ptr %1, i32 0, i32 10
  store i32 0, ptr %fMagic1, align 4
  %2 = load ptr, ptr %resB.addr, align 8
  %fMagic2 = getelementptr inbounds %struct.UResourceBundle, ptr %2, i32 0, i32 11
  store i32 0, ptr %fMagic2, align 8
  br label %if.end

if.else:                                          ; preds = %entry
  %3 = load ptr, ptr %resB.addr, align 8
  %fMagic11 = getelementptr inbounds %struct.UResourceBundle, ptr %3, i32 0, i32 10
  store i32 19700503, ptr %fMagic11, align 4
  %4 = load ptr, ptr %resB.addr, align 8
  %fMagic22 = getelementptr inbounds %struct.UResourceBundle, ptr %4, i32 0, i32 11
  store i32 19641227, ptr %fMagic22, align 8
  br label %if.end

if.end:                                           ; preds = %if.else, %if.then
  ret void
}

; Function Attrs: mustprogress uwtable
define void @ures_close_75(ptr noundef %resB) #1 {
entry:
  %resB.addr = alloca ptr, align 8
  store ptr %resB, ptr %resB.addr, align 8
  %0 = load ptr, ptr %resB.addr, align 8
  call void @_ZL16ures_closeBundleP15UResourceBundlea(ptr noundef %0, i8 noundef signext 1)
  ret void
}

; Function Attrs: mustprogress nounwind uwtable
define internal noundef signext i8 @_ZL9U_SUCCESS10UErrorCode(i32 noundef %code) #0 {
entry:
  %code.addr = alloca i32, align 4
  store i32 %code, ptr %code.addr, align 4
  %0 = load i32, ptr %code.addr, align 4
  %cmp = icmp sle i32 %0, 0
  %conv = zext i1 %cmp to i8
  ret i8 %conv
}

; Function Attrs: mustprogress uwtable
define ptr @ures_openDirect_75(ptr noundef %path, ptr noundef %localeID, ptr noundef %status) #1 {
entry:
  %path.addr = alloca ptr, align 8
  %localeID.addr = alloca ptr, align 8
  %status.addr = alloca ptr, align 8
  store ptr %path, ptr %path.addr, align 8
  store ptr %localeID, ptr %localeID.addr, align 8
  store ptr %status, ptr %status.addr, align 8
  %0 = load ptr, ptr %path.addr, align 8
  %1 = load ptr, ptr %localeID.addr, align 8
  %2 = load ptr, ptr %status.addr, align 8
  %call = call noundef ptr @_ZL17ures_openWithTypeP15UResourceBundlePKcS2_12UResOpenTypeP10UErrorCode(ptr noundef null, ptr noundef %0, ptr noundef %1, i32 noundef 2, ptr noundef %2)
  ret ptr %call
}

; Function Attrs: mustprogress uwtable
define void @ures_initStackObject_75(ptr noundef %resB) #1 {
entry:
  %resB.addr = alloca ptr, align 8
  store ptr %resB, ptr %resB.addr, align 8
  %0 = load ptr, ptr %resB.addr, align 8
  call void @llvm.memset.p0.i64(ptr align 8 %0, i8 0, i64 136, i1 false)
  %1 = load ptr, ptr %resB.addr, align 8
  call void @_ZL21ures_setIsStackObjectP15UResourceBundlea(ptr noundef %1, i8 noundef signext 1)
  ret void
}

; Function Attrs: mustprogress nounwind uwtable
define internal noundef signext i8 @_ZL9U_FAILURE10UErrorCode(i32 noundef %code) #0 {
entry:
  %code.addr = alloca i32, align 4
  store i32 %code, ptr %code.addr, align 4
  %0 = load i32, ptr %code.addr, align 4
  %cmp = icmp sgt i32 %0, 0
  %conv = zext i1 %cmp to i8
  ret i8 %conv
}

; Function Attrs: mustprogress uwtable
define ptr @ures_openAvailableLocales_75(ptr noundef %path, ptr noundef %status) #1 {
entry:
  %retval = alloca ptr, align 8
  %path.addr = alloca ptr, align 8
  %status.addr = alloca ptr, align 8
  %idx = alloca ptr, align 8
  %en = alloca ptr, align 8
  %myContext = alloca ptr, align 8
  store ptr %path, ptr %path.addr, align 8
  store ptr %status, ptr %status.addr, align 8
  store ptr null, ptr %idx, align 8
  store ptr null, ptr %en, align 8
  store ptr null, ptr %myContext, align 8
  %0 = load ptr, ptr %status.addr, align 8
  %1 = load i32, ptr %0, align 4
  %call = call noundef signext i8 @_ZL9U_FAILURE10UErrorCode(i32 noundef %1)
  %tobool = icmp ne i8 %call, 0
  br i1 %tobool, label %if.then, label %if.end

if.then:                                          ; preds = %entry
  store ptr null, ptr %retval, align 8
  br label %return

if.end:                                           ; preds = %entry
  %call1 = call noalias ptr @uprv_malloc_75(i64 noundef 272) #11
  store ptr %call1, ptr %myContext, align 8
  %call2 = call noalias ptr @uprv_malloc_75(i64 noundef 56) #11
  store ptr %call2, ptr %en, align 8
  %2 = load ptr, ptr %en, align 8
  %tobool3 = icmp ne ptr %2, null
  br i1 %tobool3, label %lor.lhs.false, label %if.then5

lor.lhs.false:                                    ; preds = %if.end
  %3 = load ptr, ptr %myContext, align 8
  %tobool4 = icmp ne ptr %3, null
  br i1 %tobool4, label %if.end6, label %if.then5

if.then5:                                         ; preds = %lor.lhs.false, %if.end
  %4 = load ptr, ptr %status.addr, align 8
  store i32 7, ptr %4, align 4
  %5 = load ptr, ptr %en, align 8
  call void @uprv_free_75(ptr noundef %5)
  %6 = load ptr, ptr %myContext, align 8
  call void @uprv_free_75(ptr noundef %6)
  store ptr null, ptr %retval, align 8
  br label %return

if.end6:                                          ; preds = %lor.lhs.false
  br label %do.body

do.body:                                          ; preds = %if.end6
  %7 = load ptr, ptr %en, align 8
  call void @llvm.memcpy.p0.p0.i64(ptr align 8 %7, ptr align 8 @_ZL12gLocalesEnum, i64 56, i1 false)
  br label %do.end

do.end:                                           ; preds = %do.body
  %8 = load ptr, ptr %myContext, align 8
  %installed = getelementptr inbounds %struct.ULocalesContext, ptr %8, i32 0, i32 0
  call void @ures_initStackObject_75(ptr noundef %installed)
  %9 = load ptr, ptr %myContext, align 8
  %curr = getelementptr inbounds %struct.ULocalesContext, ptr %9, i32 0, i32 1
  call void @ures_initStackObject_75(ptr noundef %curr)
  %10 = load ptr, ptr %path.addr, align 8
  %11 = load ptr, ptr %status.addr, align 8
  %call7 = call ptr @ures_openDirect_75(ptr noundef %10, ptr noundef @.str.5, ptr noundef %11)
  store ptr %call7, ptr %idx, align 8
  %12 = load ptr, ptr %idx, align 8
  %13 = load ptr, ptr %myContext, align 8
  %installed8 = getelementptr inbounds %struct.ULocalesContext, ptr %13, i32 0, i32 0
  %14 = load ptr, ptr %status.addr, align 8
  %call9 = call ptr @ures_getByKey_75(ptr noundef %12, ptr noundef @.str.6, ptr noundef %installed8, ptr noundef %14)
  %15 = load ptr, ptr %status.addr, align 8
  %16 = load i32, ptr %15, align 4
  %call10 = call noundef signext i8 @_ZL9U_SUCCESS10UErrorCode(i32 noundef %16)
  %tobool11 = icmp ne i8 %call10, 0
  br i1 %tobool11, label %if.then12, label %if.else

if.then12:                                        ; preds = %do.end
  %17 = load ptr, ptr %myContext, align 8
  %18 = load ptr, ptr %en, align 8
  %context = getelementptr inbounds %struct.UEnumeration, ptr %18, i32 0, i32 1
  store ptr %17, ptr %context, align 8
  br label %if.end14

if.else:                                          ; preds = %do.end
  %19 = load ptr, ptr %myContext, align 8
  %installed13 = getelementptr inbounds %struct.ULocalesContext, ptr %19, i32 0, i32 0
  call void @ures_close_75(ptr noundef %installed13)
  %20 = load ptr, ptr %myContext, align 8
  call void @uprv_free_75(ptr noundef %20)
  %21 = load ptr, ptr %en, align 8
  call void @uprv_free_75(ptr noundef %21)
  store ptr null, ptr %en, align 8
  br label %if.end14

if.end14:                                         ; preds = %if.else, %if.then12
  %22 = load ptr, ptr %idx, align 8
  call void @ures_close_75(ptr noundef %22)
  %23 = load ptr, ptr %en, align 8
  store ptr %23, ptr %retval, align 8
  br label %return

return:                                           ; preds = %if.end14, %if.then5, %if.then
  %24 = load ptr, ptr %retval, align 8
  ret ptr %24
}