; Function Attrs: mustprogress uwtable
define noundef ptr @ures_openAvailableLocales_75(ptr noundef %path, ptr noundef %status) local_unnamed_addr #1 {
entry:
  %0 = load i32, ptr %status, align 4
  %cmp.i = icmp slt i32 %0, 1
  br i1 %cmp.i, label %if.end, label %return

if.end:                                           ; preds = %entry
  %call1 = tail call noalias dereferenceable_or_null(272) ptr @uprv_malloc_75(i64 noundef 272) #21
  %call2 = tail call noalias dereferenceable_or_null(56) ptr @uprv_malloc_75(i64 noundef 56) #21
  %tobool3 = icmp ne ptr %call2, null
  %tobool4 = icmp ne ptr %call1, null
  %or.cond = and i1 %tobool4, %tobool3
  br i1 %or.cond, label %do.body, label %if.then5

if.then5:                                         ; preds = %if.end
  store i32 7, ptr %status, align 4
  tail call void @uprv_free_75(ptr noundef %call2)
  tail call void @uprv_free_75(ptr noundef %call1)
  br label %return

do.body:                                          ; preds = %if.end
  tail call void @llvm.memcpy.p0.p0.i64(ptr noundef nonnull align 8 dereferenceable(56) %call2, ptr noundef nonnull align 8 dereferenceable(56) @_ZL12gLocalesEnum, i64 56, i1 false)
  tail call void @llvm.memset.p0.i64(ptr noundef nonnull align 8 dereferenceable(272) %call1, i8 0, i64 272, i1 false)
  %call.i = tail call fastcc noundef ptr @_ZL17ures_openWithTypeP15UResourceBundlePKcS2_12UResOpenTypeP10UErrorCode(ptr noundef null, ptr noundef %path, ptr noundef nonnull @.str.5, i32 noundef 2, ptr noundef nonnull %status)
  %call9 = tail call ptr @ures_getByKey_75(ptr noundef %call.i, ptr noundef nonnull @.str.6, ptr noundef nonnull %call1, ptr noundef nonnull %status)
  %1 = load i32, ptr %status, align 4
  %cmp.i18 = icmp sgt i32 %1, 0
  br i1 %cmp.i18, label %if.else, label %if.then12

if.then12:                                        ; preds = %do.body
  %context = getelementptr inbounds i8, ptr %call2, i64 8
  store ptr %call1, ptr %context, align 8
  br label %if.end14

if.else:                                          ; preds = %do.body
  tail call fastcc void @_ZL16ures_closeBundleP15UResourceBundlea(ptr noundef nonnull %call1, i8 noundef signext 1)
  tail call void @uprv_free_75(ptr noundef nonnull %call1)
  tail call void @uprv_free_75(ptr noundef nonnull %call2)
  br label %if.end14

if.end14:                                         ; preds = %if.else, %if.then12
  %en.0 = phi ptr [ %call2, %if.then12 ], [ null, %if.else ]
  tail call fastcc void @_ZL16ures_closeBundleP15UResourceBundlea(ptr noundef %call.i, i8 noundef signext 1)
  br label %return

return:                                           ; preds = %entry, %if.end14, %if.then5
  %retval.0 = phi ptr [ %en.0, %if.end14 ], [ null, %if.then5 ], [ null, %entry ]
  ret ptr %retval.0
}